target datalayout = "e-m:e-p270:32:32-p271:32:32-p272:64:64-i64:64-i128:128-f80:128-n8:16:32:64-S128"
target triple = "x86_64-pc-linux-gnu"

%struct.SparseMatrix_struct = type { i32, i32, i32, i32, i32, ptr, ptr, ptr, i32, i8, i64 }

@Verbose = external global i8, align 1
@stderr = external global ptr, align 8
@.str = private unnamed_addr constant [61 x i8] c"ratio (edges among discontiguous regions vs total edges)=%f\0A\00", align 1

; Function Attrs: nounwind uwtable
define internal i32 @get_poly_id(i32 noundef %0, ptr noundef %1) #0 {
  %3 = alloca i32, align 4
  %4 = alloca ptr, align 8
  store i32 %0, ptr %3, align 4, !tbaa !21
  store ptr %1, ptr %4, align 8, !tbaa !9
  %5 = load ptr, ptr %4, align 8, !tbaa !9
  %6 = getelementptr inbounds nuw %struct.SparseMatrix_struct, ptr %5, i32 0, i32 6
  %7 = load ptr, ptr %6, align 8, !tbaa !42
  %8 = load ptr, ptr %4, align 8, !tbaa !9
  %9 = getelementptr inbounds nuw %struct.SparseMatrix_struct, ptr %8, i32 0, i32 5
  %10 = load ptr, ptr %9, align 8, !tbaa !41
  %11 = load i32, ptr %3, align 4, !tbaa !21
  %12 = sext i32 %11 to i64
  %13 = getelementptr inbounds i32, ptr %10, i64 %12
  %14 = load i32, ptr %13, align 4, !tbaa !21
  %15 = sext i32 %14 to i64
  %16 = getelementptr inbounds i32, ptr %7, i64 %15
  %17 = load i32, ptr %16, align 4, !tbaa !21
  ret i32 %17
}

; Function Attrs: nounwind uwtable
define dso_local void @improve_contiguity(i32 noundef %0, i32 noundef %1, ptr noundef %2, ptr noundef %3, ptr noundef %4, ptr noundef %5) #0 {
  %7 = alloca i32, align 4
  %8 = alloca i32, align 4
  %9 = alloca ptr, align 8
  %10 = alloca ptr, align 8
  %11 = alloca ptr, align 8
  %12 = alloca ptr, align 8
  %13 = alloca i32, align 4
  %14 = alloca i32, align 4
  %15 = alloca ptr, align 8
  %16 = alloca ptr, align 8
  %17 = alloca i32, align 4
  %18 = alloca i32, align 4
  %19 = alloca ptr, align 8
  %20 = alloca ptr, align 8
  %21 = alloca double, align 8
  %22 = alloca i32, align 4
  %23 = alloca i32, align 4
  %24 = alloca i32, align 4
  %25 = alloca ptr, align 8
  store i32 %0, ptr %7, align 4, !tbaa !21
  store i32 %1, ptr %8, align 4, !tbaa !21
  store ptr %2, ptr %9, align 8, !tbaa !37
  store ptr %3, ptr %10, align 8, !tbaa !9
  store ptr %4, ptr %11, align 8, !tbaa !13
  store ptr %5, ptr %12, align 8, !tbaa !9
  call void @llvm.lifetime.start.p0(i64 4, ptr %13) #14
  call void @llvm.lifetime.start.p0(i64 4, ptr %14) #14
  call void @llvm.lifetime.start.p0(i64 8, ptr %15) #14
  call void @llvm.lifetime.start.p0(i64 8, ptr %16) #14
  call void @llvm.lifetime.start.p0(i64 4, ptr %17) #14
  call void @llvm.lifetime.start.p0(i64 4, ptr %18) #14
  call void @llvm.lifetime.start.p0(i64 8, ptr %19) #14
  call void @llvm.lifetime.start.p0(i64 8, ptr %20) #14
  call void @llvm.lifetime.start.p0(i64 8, ptr %21) #14
  call void @llvm.lifetime.start.p0(i64 4, ptr %22) #14
  store i32 0, ptr %22, align 4, !tbaa !21
  call void @llvm.lifetime.start.p0(i64 4, ptr %23) #14
  call void @llvm.lifetime.start.p0(i64 4, ptr %24) #14
  store i32 10, ptr %24, align 4, !tbaa !21
  %26 = load ptr, ptr %12, align 8, !tbaa !9
  %27 = call ptr @SparseMatrix_get_real_adjacency_matrix_symmetrized(ptr noundef %26)
  store ptr %27, ptr %20, align 8, !tbaa !9
  %28 = load ptr, ptr %20, align 8, !tbaa !9
  %29 = getelementptr inbounds nuw %struct.SparseMatrix_struct, ptr %28, i32 0, i32 5
  %30 = load ptr, ptr %29, align 8, !tbaa !41
  store ptr %30, ptr %15, align 8, !tbaa !37
  %31 = load ptr, ptr %20, align 8, !tbaa !9
  %32 = getelementptr inbounds nuw %struct.SparseMatrix_struct, ptr %31, i32 0, i32 6
  %33 = load ptr, ptr %32, align 8, !tbaa !42
  store ptr %33, ptr %16, align 8, !tbaa !37
  call void @llvm.lifetime.start.p0(i64 8, ptr %25) #14
  %34 = load ptr, ptr %20, align 8, !tbaa !9
  %35 = getelementptr inbounds nuw %struct.SparseMatrix_struct, ptr %34, i32 0, i32 7
  %36 = load ptr, ptr %35, align 8, !tbaa !43
  store ptr %36, ptr %25, align 8, !tbaa !13
  %37 = load ptr, ptr %10, align 8, !tbaa !9
  %38 = call ptr @SparseMatrix_transpose(ptr noundef %37)
  store ptr %38, ptr %19, align 8, !tbaa !9
  store i32 0, ptr %13, align 4, !tbaa !21
  br label %39

39:                                               ; preds = %117, %6
  %40 = load i32, ptr %13, align 4, !tbaa !21
  %41 = load i32, ptr %7, align 4, !tbaa !21
  %42 = icmp slt i32 %40, %41
  br i1 %42, label %43, label %120

43:                                               ; preds = %39
  %44 = load i32, ptr %13, align 4, !tbaa !21
  store i32 %44, ptr %17, align 4, !tbaa !21
  %45 = load ptr, ptr %15, align 8, !tbaa !37
  %46 = load i32, ptr %13, align 4, !tbaa !21
  %47 = sext i32 %46 to i64
  %48 = getelementptr inbounds i32, ptr %45, i64 %47
  %49 = load i32, ptr %48, align 4, !tbaa !21
  store i32 %49, ptr %14, align 4, !tbaa !21
  br label %50

50:                                               ; preds = %113, %43
  %51 = load i32, ptr %14, align 4, !tbaa !21
  %52 = load ptr, ptr %15, align 8, !tbaa !37
  %53 = load i32, ptr %13, align 4, !tbaa !21
  %54 = add nsw i32 %53, 1
  %55 = sext i32 %54 to i64
  %56 = getelementptr inbounds i32, ptr %52, i64 %55
  %57 = load i32, ptr %56, align 4, !tbaa !21
  %58 = icmp slt i32 %51, %57
  br i1 %58, label %59, label %116

59:                                               ; preds = %50
  %60 = load ptr, ptr %16, align 8, !tbaa !37
  %61 = load i32, ptr %14, align 4, !tbaa !21
  %62 = sext i32 %61 to i64
  %63 = getelementptr inbounds i32, ptr %60, i64 %62
  %64 = load i32, ptr %63, align 4, !tbaa !21
  store i32 %64, ptr %18, align 4, !tbaa !21
  %65 = load ptr, ptr %11, align 8, !tbaa !13
  %66 = load i32, ptr %8, align 4, !tbaa !21
  %67 = load i32, ptr %17, align 4, !tbaa !21
  %68 = load i32, ptr %18, align 4, !tbaa !21
  %69 = call double @distance_cropped(ptr noundef %65, i32 noundef %66, i32 noundef %67, i32 noundef %68)
  store double %69, ptr %21, align 8, !tbaa !25
  %70 = load ptr, ptr %9, align 8, !tbaa !37
  %71 = load i32, ptr %17, align 4, !tbaa !21
  %72 = sext i32 %71 to i64
  %73 = getelementptr inbounds i32, ptr %70, i64 %72
  %74 = load i32, ptr %73, align 4, !tbaa !21
  %75 = load ptr, ptr %9, align 8, !tbaa !37
  %76 = load i32, ptr %18, align 4, !tbaa !21
  %77 = sext i32 %76 to i64
  %78 = getelementptr inbounds i32, ptr %75, i64 %77
  %79 = load i32, ptr %78, align 4, !tbaa !21
  %80 = icmp ne i32 %74, %79
  br i1 %80, label %81, label %88

81:                                               ; preds = %59
  %82 = load double, ptr %21, align 8, !tbaa !25
  %83 = fmul double 1.100000e+00, %82
  %84 = load ptr, ptr %25, align 8, !tbaa !13
  %85 = load i32, ptr %14, align 4, !tbaa !21
  %86 = sext i32 %85 to i64
  %87 = getelementptr inbounds double, ptr %84, i64 %86
  store double %83, ptr %87, align 8, !tbaa !25
  br label %112

88:                                               ; preds = %59
  %89 = load i32, ptr %17, align 4, !tbaa !21
  %90 = load ptr, ptr %19, align 8, !tbaa !9
  %91 = call i32 @get_poly_id(i32 noundef %89, ptr noundef %90)
  %92 = load i32, ptr %18, align 4, !tbaa !21
  %93 = load ptr, ptr %19, align 8, !tbaa !9
  %94 = call i32 @get_poly_id(i32 noundef %92, ptr noundef %93)
  %95 = icmp eq i32 %91, %94
  br i1 %95, label %96, label %102

96:                                               ; preds = %88
  %97 = load double, ptr %21, align 8, !tbaa !25
  %98 = load ptr, ptr %25, align 8, !tbaa !13
  %99 = load i32, ptr %14, align 4, !tbaa !21
  %100 = sext i32 %99 to i64
  %101 = getelementptr inbounds double, ptr %98, i64 %100
  store double %97, ptr %101, align 8, !tbaa !25
  br label %111

102:                                              ; preds = %88
  %103 = load i32, ptr %22, align 4, !tbaa !21
  %104 = add nsw i32 %103, 1
  store i32 %104, ptr %22, align 4, !tbaa !21
  %105 = load double, ptr %21, align 8, !tbaa !25
  %106 = fmul double 9.000000e-01, %105
  %107 = load ptr, ptr %25, align 8, !tbaa !13
  %108 = load i32, ptr %14, align 4, !tbaa !21
  %109 = sext i32 %108 to i64
  %110 = getelementptr inbounds double, ptr %107, i64 %109
  store double %106, ptr %110, align 8, !tbaa !25
  br label %111

111:                                              ; preds = %102, %96
  br label %112

112:                                              ; preds = %111, %81
  br label %113

113:                                              ; preds = %112
  %114 = load i32, ptr %14, align 4, !tbaa !21
  %115 = add nsw i32 %114, 1
  store i32 %115, ptr %14, align 4, !tbaa !21
  br label %50, !llvm.loop !44

116:                                              ; preds = %50
  br label %117

117:                                              ; preds = %116
  %118 = load i32, ptr %13, align 4, !tbaa !21
  %119 = add nsw i32 %118, 1
  store i32 %119, ptr %13, align 4, !tbaa !21
  br label %39, !llvm.loop !45

120:                                              ; preds = %39
  %121 = load i8, ptr @Verbose, align 1, !tbaa !46
  %122 = icmp ne i8 %121, 0
  br i1 %122, label %123, label %135

123:                                              ; preds = %120
  %124 = load ptr, ptr @stderr, align 8, !tbaa !23
  %125 = load i32, ptr %22, align 4, !tbaa !21
  %126 = sitofp i32 %125 to double
  %127 = load ptr, ptr %15, align 8, !tbaa !37
  %128 = load i32, ptr %7, align 4, !tbaa !21
  %129 = sext i32 %128 to i64
  %130 = getelementptr inbounds i32, ptr %127, i64 %129
  %131 = load i32, ptr %130, align 4, !tbaa !21
  %132 = sitofp i32 %131 to double
  %133 = fdiv double %126, %132
  %134 = call i32 (ptr, ptr, ...) @fprintf(ptr noundef %124, ptr noundef @.str, double noundef %133) #14
  br label %135

135:                                              ; preds = %123, %120
  %136 = load i32, ptr %8, align 4, !tbaa !21
  %137 = load ptr, ptr %20, align 8, !tbaa !9
  %138 = load i32, ptr %24, align 4, !tbaa !21
  call void @stress_model(i32 noundef %136, ptr noundef %137, ptr noundef %11, i32 noundef %138, ptr noundef %23)
  %139 = load ptr, ptr %20, align 8, !tbaa !9
  call void @SparseMatrix_delete(ptr noundef %139)
  %140 = load ptr, ptr %19, align 8, !tbaa !9
  call void @SparseMatrix_delete(ptr noundef %140)
  call void @llvm.lifetime.end.p0(i64 8, ptr %25) #14
  call void @llvm.lifetime.end.p0(i64 4, ptr %24) #14
  call void @llvm.lifetime.end.p0(i64 4, ptr %23) #14
  call void @llvm.lifetime.end.p0(i64 4, ptr %22) #14
  call void @llvm.lifetime.end.p0(i64 8, ptr %21) #14
  call void @llvm.lifetime.end.p0(i64 8, ptr %20) #14
  call void @llvm.lifetime.end.p0(i64 8, ptr %19) #14
  call void @llvm.lifetime.end.p0(i64 4, ptr %18) #14
  call void @llvm.lifetime.end.p0(i64 4, ptr %17) #14
  call void @llvm.lifetime.end.p0(i64 8, ptr %16) #14
  call void @llvm.lifetime.end.p0(i64 8, ptr %15) #14
  call void @llvm.lifetime.end.p0(i64 4, ptr %14) #14
  call void @llvm.lifetime.end.p0(i64 4, ptr %13) #14
  ret void
}