; Function Attrs: nounwind uwtable
define dso_local void @improve_contiguity(i32 noundef %0, i32 noundef %1, ptr noundef readonly captures(none) %2, ptr noundef %3, ptr noundef %4, ptr noundef %5) local_unnamed_addr #0 {
  %7 = alloca ptr, align 8
  %8 = alloca i32, align 4
  store ptr %4, ptr %7, align 8, !tbaa !4
  call void @llvm.lifetime.start.p0(i64 4, ptr nonnull %8) #19
  %9 = tail call ptr @SparseMatrix_get_real_adjacency_matrix_symmetrized(ptr noundef %5) #19
  %10 = getelementptr inbounds nuw i8, ptr %9, i64 24
  %11 = load ptr, ptr %10, align 8, !tbaa !30
  %12 = getelementptr inbounds nuw i8, ptr %9, i64 32
  %13 = load ptr, ptr %12, align 8, !tbaa !31
  %14 = getelementptr inbounds nuw i8, ptr %9, i64 40
  %15 = load ptr, ptr %14, align 8, !tbaa !32
  %16 = tail call ptr @SparseMatrix_transpose(ptr noundef %3) #19
  %17 = icmp sgt i32 %0, 0
  br i1 %17, label %.lr.ph57, label %._crit_edge

.lr.ph57:                                         ; preds = %6
  %18 = getelementptr i8, ptr %16, i64 24
  %19 = getelementptr i8, ptr %16, i64 32
  %wide.trip.count = zext nneg i32 %0 to i64
  %.pre = load i32, ptr %11, align 4, !tbaa !19
  br label %21

.loopexit:                                        ; preds = %54, %21
  %20 = phi i32 [ %24, %21 ], [ %56, %54 ]
  %.1.lcssa = phi i32 [ %.04655, %21 ], [ %.2, %54 ]
  %exitcond.not = icmp eq i64 %indvars.iv.next61, %wide.trip.count
  br i1 %exitcond.not, label %._crit_edge.loopexit, label %21, !llvm.loop !33

21:                                               ; preds = %.lr.ph57, %.loopexit
  %22 = phi i32 [ %.pre, %.lr.ph57 ], [ %20, %.loopexit ]
  %indvars.iv60 = phi i64 [ 0, %.lr.ph57 ], [ %indvars.iv.next61, %.loopexit ]
  %.04655 = phi i32 [ 0, %.lr.ph57 ], [ %.1.lcssa, %.loopexit ]
  %indvars.iv.next61 = add nuw nsw i64 %indvars.iv60, 1
  %23 = getelementptr inbounds nuw i32, ptr %11, i64 %indvars.iv.next61
  %24 = load i32, ptr %23, align 4, !tbaa !19
  %25 = icmp slt i32 %22, %24
  br i1 %25, label %.lr.ph, label %.loopexit

.lr.ph:                                           ; preds = %21
  %26 = getelementptr inbounds nuw i32, ptr %2, i64 %indvars.iv60
  %27 = sext i32 %22 to i64
  %28 = trunc nuw nsw i64 %indvars.iv60 to i32
  br label %29

29:                                               ; preds = %.lr.ph, %54
  %indvars.iv = phi i64 [ %27, %.lr.ph ], [ %indvars.iv.next, %54 ]
  %.152 = phi i32 [ %.04655, %.lr.ph ], [ %.2, %54 ]
  %30 = getelementptr inbounds i32, ptr %13, i64 %indvars.iv
  %31 = load i32, ptr %30, align 4, !tbaa !19
  %32 = tail call double @distance_cropped(ptr noundef %4, i32 noundef %1, i32 noundef %28, i32 noundef %31) #19
  %33 = load i32, ptr %26, align 4, !tbaa !19
  %34 = sext i32 %31 to i64
  %35 = getelementptr inbounds i32, ptr %2, i64 %34
  %36 = load i32, ptr %35, align 4, !tbaa !19
  %.not48 = icmp eq i32 %33, %36
  br i1 %.not48, label %39, label %37

37:                                               ; preds = %29
  %38 = fmul double %32, 1.100000e+00
  br label %54

39:                                               ; preds = %29
  %.val = load ptr, ptr %18, align 8, !tbaa !30
  %.val49 = load ptr, ptr %19, align 8, !tbaa !31
  %40 = getelementptr inbounds nuw i32, ptr %.val, i64 %indvars.iv60
  %41 = load i32, ptr %40, align 4, !tbaa !19
  %42 = sext i32 %41 to i64
  %43 = getelementptr inbounds i32, ptr %.val49, i64 %42
  %44 = load i32, ptr %43, align 4, !tbaa !19
  %45 = getelementptr inbounds i32, ptr %.val, i64 %34
  %46 = load i32, ptr %45, align 4, !tbaa !19
  %47 = sext i32 %46 to i64
  %48 = getelementptr inbounds i32, ptr %.val49, i64 %47
  %49 = load i32, ptr %48, align 4, !tbaa !19
  %50 = icmp eq i32 %44, %49
  br i1 %50, label %54, label %51

51:                                               ; preds = %39
  %52 = add nsw i32 %.152, 1
  %53 = fmul double %32, 9.000000e-01
  br label %54

54:                                               ; preds = %39, %37, %51
  %.sink = phi double [ %38, %37 ], [ %53, %51 ], [ %32, %39 ]
  %.2 = phi i32 [ %.152, %37 ], [ %52, %51 ], [ %.152, %39 ]
  %55 = getelementptr inbounds double, ptr %15, i64 %indvars.iv
  store double %.sink, ptr %55, align 8, !tbaa !20
  %indvars.iv.next = add nsw i64 %indvars.iv, 1
  %56 = load i32, ptr %23, align 4, !tbaa !19
  %57 = sext i32 %56 to i64
  %58 = icmp slt i64 %indvars.iv.next, %57
  br i1 %58, label %29, label %.loopexit, !llvm.loop !34

._crit_edge.loopexit:                             ; preds = %.loopexit
  %59 = sitofp i32 %.1.lcssa to double
  br label %._crit_edge

._crit_edge:                                      ; preds = %._crit_edge.loopexit, %6
  %.046.lcssa = phi double [ 0.000000e+00, %6 ], [ %59, %._crit_edge.loopexit ]
  %60 = load i8, ptr @Verbose, align 1, !tbaa !35
  %.not = icmp eq i8 %60, 0
  br i1 %.not, label %69, label %61

61:                                               ; preds = %._crit_edge
  %62 = load ptr, ptr @stderr, align 8, !tbaa !15
  %63 = sext i32 %0 to i64
  %64 = getelementptr inbounds i32, ptr %11, i64 %63
  %65 = load i32, ptr %64, align 4, !tbaa !19
  %66 = sitofp i32 %65 to double
  %67 = fdiv double %.046.lcssa, %66
  %68 = tail call i32 (ptr, ptr, ...) @fprintf(ptr noundef %62, ptr noundef nonnull @.str, double noundef %67) #20
  br label %69

69:                                               ; preds = %61, %._crit_edge
  call void @stress_model(i32 noundef %1, ptr noundef %9, ptr noundef nonnull %7, i32 noundef 10, ptr noundef nonnull %8) #19
  call void @SparseMatrix_delete(ptr noundef %9) #19
  call void @SparseMatrix_delete(ptr noundef %16) #19
  call void @llvm.lifetime.end.p0(i64 4, ptr nonnull %8) #19
  ret void
}